target datalayout = "e-m:e-p270:32:32-p271:32:32-p272:64:64-i64:64-i128:128-f80:128-n8:16:32:64-S128"
target triple = "x86_64-pc-linux-gnu"

%"class.rocksdb::Status" = type { i8, i8, i8, i8, i8, i8, %"class.std::unique_ptr" }
%"class.std::unique_ptr" = type { %"struct.std::__uniq_ptr_data" }
%"struct.std::__uniq_ptr_data" = type { %"class.std::__uniq_ptr_impl" }
%"class.std::__uniq_ptr_impl" = type { %"class.std::tuple" }
%"class.std::tuple" = type { %"struct.std::_Tuple_impl" }
%"struct.std::_Tuple_impl" = type { %"struct.std::_Head_base.1" }
%"struct.std::_Head_base.1" = type { ptr }
%struct.rocksdb_t = type { ptr }
%struct.rocksdb_column_family_handle_t = type { ptr, i8 }
%"class.rocksdb::Slice" = type { ptr, i64 }

@.str = private unnamed_addr constant [1 x i8] zeroinitializer, align 1

; Function Attrs: mustprogress nounwind uwtable
define linkonce_odr noundef nonnull align 1 dereferenceable(1) ptr @_ZNSt10_Head_baseILm1ESt14default_deleteIA_KcELb1EE7_M_headERS4_(ptr noundef nonnull align 1 dereferenceable(1) %0) #2 comdat align 2 {
  %2 = alloca ptr, align 8
  store ptr %0, ptr %2, align 8, !tbaa !1393
  %3 = load ptr, ptr %2, align 8, !tbaa !1393
  ret ptr %3
}

; Function Attrs: mustprogress nounwind uwtable
define linkonce_odr noundef nonnull align 1 dereferenceable(1) ptr @_ZNSt11_Tuple_implILm1EJSt14default_deleteIA_KcEEE7_M_headERS4_(ptr noundef nonnull align 1 dereferenceable(1) %0) #2 comdat align 2 {
  %2 = alloca ptr, align 8
  store ptr %0, ptr %2, align 8, !tbaa !1391
  %3 = load ptr, ptr %2, align 8, !tbaa !1391
  %4 = call noundef nonnull align 1 dereferenceable(1) ptr @_ZNSt10_Head_baseILm1ESt14default_deleteIA_KcELb1EE7_M_headERS4_(ptr noundef nonnull align 1 dereferenceable(1) %3) #24
  ret ptr %4
}

; Function Attrs: mustprogress nounwind uwtable
define linkonce_odr noundef nonnull align 8 dereferenceable(8) ptr @_ZNSt10_Head_baseILm0EPKcLb0EE7_M_headERS2_(ptr noundef nonnull align 8 dereferenceable(8) %0) #2 comdat align 2 {
  %2 = alloca ptr, align 8
  store ptr %0, ptr %2, align 8, !tbaa !1389
  %3 = load ptr, ptr %2, align 8, !tbaa !1389
  %4 = getelementptr inbounds nuw %"struct.std::_Head_base.1", ptr %3, i32 0, i32 0
  ret ptr %4
}

; Function Attrs: mustprogress nounwind uwtable
define linkonce_odr noundef nonnull align 1 dereferenceable(1) ptr @_ZSt12__get_helperILm1ESt14default_deleteIA_KcEJEERT0_RSt11_Tuple_implIXT_EJS4_DpT1_EE(ptr noundef nonnull align 1 dereferenceable(1) %0) #2 comdat {
  %2 = alloca ptr, align 8
  store ptr %0, ptr %2, align 8, !tbaa !1391
  %3 = load ptr, ptr %2, align 8, !tbaa !1391
  %4 = call noundef nonnull align 1 dereferenceable(1) ptr @_ZNSt11_Tuple_implILm1EJSt14default_deleteIA_KcEEE7_M_headERS4_(ptr noundef nonnull align 1 dereferenceable(1) %3) #24
  ret ptr %4
}

; Function Attrs: mustprogress nounwind uwtable
define linkonce_odr noundef nonnull align 8 dereferenceable(8) ptr @_ZNSt11_Tuple_implILm0EJPKcSt14default_deleteIA_S0_EEE7_M_headERS5_(ptr noundef nonnull align 8 dereferenceable(8) %0) #2 comdat align 2 {
  %2 = alloca ptr, align 8
  store ptr %0, ptr %2, align 8, !tbaa !1387
  %3 = load ptr, ptr %2, align 8, !tbaa !1387
  %4 = call noundef nonnull align 8 dereferenceable(8) ptr @_ZNSt10_Head_baseILm0EPKcLb0EE7_M_headERS2_(ptr noundef nonnull align 8 dereferenceable(8) %3) #24
  ret ptr %4
}

; Function Attrs: mustprogress nounwind uwtable
define linkonce_odr noundef nonnull align 1 dereferenceable(1) ptr @_ZSt3getILm1EJPKcSt14default_deleteIA_S0_EEERNSt13tuple_elementIXT_ESt5tupleIJDpT0_EEE4typeERS9_(ptr noundef nonnull align 8 dereferenceable(8) %0) #2 comdat {
  %2 = alloca ptr, align 8
  store ptr %0, ptr %2, align 8, !tbaa !1385
  %3 = load ptr, ptr %2, align 8, !tbaa !1385
  %4 = call noundef nonnull align 1 dereferenceable(1) ptr @_ZSt12__get_helperILm1ESt14default_deleteIA_KcEJEERT0_RSt11_Tuple_implIXT_EJS4_DpT1_EE(ptr noundef nonnull align 1 dereferenceable(1) %3) #24
  ret ptr %4
}

; Function Attrs: mustprogress nounwind uwtable
define linkonce_odr noundef nonnull align 8 dereferenceable(8) ptr @_ZSt12__get_helperILm0EPKcJSt14default_deleteIA_S0_EEERT0_RSt11_Tuple_implIXT_EJS5_DpT1_EE(ptr noundef nonnull align 8 dereferenceable(8) %0) #2 comdat {
  %2 = alloca ptr, align 8
  store ptr %0, ptr %2, align 8, !tbaa !1387
  %3 = load ptr, ptr %2, align 8, !tbaa !1387
  %4 = call noundef nonnull align 8 dereferenceable(8) ptr @_ZNSt11_Tuple_implILm0EJPKcSt14default_deleteIA_S0_EEE7_M_headERS5_(ptr noundef nonnull align 8 dereferenceable(8) %3) #24
  ret ptr %4
}

; Function Attrs: mustprogress nounwind uwtable
define linkonce_odr noundef nonnull align 1 dereferenceable(1) ptr @_ZNSt15__uniq_ptr_implIKcSt14default_deleteIA_S0_EE10_M_deleterEv(ptr noundef nonnull align 8 dereferenceable(8) %0) #2 comdat align 2 {
  %2 = alloca ptr, align 8
  store ptr %0, ptr %2, align 8, !tbaa !1381
  %3 = load ptr, ptr %2, align 8
  %4 = getelementptr inbounds nuw %"class.std::__uniq_ptr_impl", ptr %3, i32 0, i32 0
  %5 = call noundef nonnull align 1 dereferenceable(1) ptr @_ZSt3getILm1EJPKcSt14default_deleteIA_S0_EEERNSt13tuple_elementIXT_ESt5tupleIJDpT0_EEE4typeERS9_(ptr noundef nonnull align 8 dereferenceable(8) %4) #24
  ret ptr %5
}

; Function Attrs: mustprogress nounwind uwtable
define linkonce_odr noundef nonnull align 8 dereferenceable(8) ptr @_ZSt3getILm0EJPKcSt14default_deleteIA_S0_EEERNSt13tuple_elementIXT_ESt5tupleIJDpT0_EEE4typeERS9_(ptr noundef nonnull align 8 dereferenceable(8) %0) #2 comdat {
  %2 = alloca ptr, align 8
  store ptr %0, ptr %2, align 8, !tbaa !1385
  %3 = load ptr, ptr %2, align 8, !tbaa !1385
  %4 = call noundef nonnull align 8 dereferenceable(8) ptr @_ZSt12__get_helperILm0EPKcJSt14default_deleteIA_S0_EEERT0_RSt11_Tuple_implIXT_EJS5_DpT1_EE(ptr noundef nonnull align 8 dereferenceable(8) %3) #24
  ret ptr %4
}

; Function Attrs: noinline noreturn nounwind uwtable
define linkonce_odr hidden void @__clang_call_terminate(ptr noundef %0) #13 comdat {
  %2 = call ptr @__cxa_begin_catch(ptr %0) #24
  call void @_ZSt9terminatev() #27
  unreachable
}

; Function Attrs: mustprogress nounwind uwtable
define linkonce_odr void @_ZNKSt14default_deleteIA_KcEclIS0_EENSt9enable_ifIXsr14is_convertibleIPA_T_PS1_EE5valueEvE4typeEPS5_(ptr noundef nonnull align 1 dereferenceable(1) %0, ptr noundef %1) #2 comdat align 2 {
  %3 = alloca ptr, align 8
  %4 = alloca ptr, align 8
  store ptr %0, ptr %3, align 8, !tbaa !1383
  store ptr %1, ptr %4, align 8, !tbaa !9
  %5 = load ptr, ptr %4, align 8, !tbaa !9
  %6 = icmp eq ptr %5, null
  br i1 %6, label %8, label %7

7:                                                ; preds = %2
  call void @_ZdaPv(ptr noundef %5) #28
  br label %8

8:                                                ; preds = %7, %2
  ret void
}

; Function Attrs: mustprogress nounwind uwtable
define linkonce_odr noundef nonnull align 1 dereferenceable(1) ptr @_ZNSt10unique_ptrIA_KcSt14default_deleteIS1_EE11get_deleterEv(ptr noundef nonnull align 8 dereferenceable(8) %0) #2 comdat align 2 {
  %2 = alloca ptr, align 8
  store ptr %0, ptr %2, align 8, !tbaa !1379
  %3 = load ptr, ptr %2, align 8
  %4 = getelementptr inbounds nuw %"class.std::unique_ptr", ptr %3, i32 0, i32 0
  %5 = call noundef nonnull align 1 dereferenceable(1) ptr @_ZNSt15__uniq_ptr_implIKcSt14default_deleteIA_S0_EE10_M_deleterEv(ptr noundef nonnull align 8 dereferenceable(8) %4) #24
  ret ptr %5
}

; Function Attrs: mustprogress nounwind uwtable
define linkonce_odr noundef nonnull align 8 dereferenceable(8) ptr @_ZNSt15__uniq_ptr_implIKcSt14default_deleteIA_S0_EE6_M_ptrEv(ptr noundef nonnull align 8 dereferenceable(8) %0) #2 comdat align 2 {
  %2 = alloca ptr, align 8
  store ptr %0, ptr %2, align 8, !tbaa !1381
  %3 = load ptr, ptr %2, align 8
  %4 = getelementptr inbounds nuw %"class.std::__uniq_ptr_impl", ptr %3, i32 0, i32 0
  %5 = call noundef nonnull align 8 dereferenceable(8) ptr @_ZSt3getILm0EJPKcSt14default_deleteIA_S0_EEERNSt13tuple_elementIXT_ESt5tupleIJDpT0_EEE4typeERS9_(ptr noundef nonnull align 8 dereferenceable(8) %4) #24
  ret ptr %5
}

; Function Attrs: mustprogress nounwind uwtable
define linkonce_odr void @_ZNSt10unique_ptrIA_KcSt14default_deleteIS1_EED2Ev(ptr noundef nonnull align 8 dereferenceable(8) %0) unnamed_addr #2 comdat align 2 personality ptr @__gxx_personality_v0 {
  %2 = alloca ptr, align 8
  %3 = alloca ptr, align 8
  store ptr %0, ptr %2, align 8, !tbaa !1379
  %4 = load ptr, ptr %2, align 8
  call void @llvm.lifetime.start.p0(i64 8, ptr %3) #24
  %5 = getelementptr inbounds nuw %"class.std::unique_ptr", ptr %4, i32 0, i32 0
  %6 = call noundef nonnull align 8 dereferenceable(8) ptr @_ZNSt15__uniq_ptr_implIKcSt14default_deleteIA_S0_EE6_M_ptrEv(ptr noundef nonnull align 8 dereferenceable(8) %5) #24
  store ptr %6, ptr %3, align 8, !tbaa !11
  %7 = load ptr, ptr %3, align 8, !tbaa !11
  %8 = load ptr, ptr %7, align 8, !tbaa !9
  %9 = icmp ne ptr %8, null
  br i1 %9, label %10, label %15

10:                                               ; preds = %1
  %11 = call noundef nonnull align 1 dereferenceable(1) ptr @_ZNSt10unique_ptrIA_KcSt14default_deleteIS1_EE11get_deleterEv(ptr noundef nonnull align 8 dereferenceable(8) %4) #24
  %12 = load ptr, ptr %3, align 8, !tbaa !11
  %13 = load ptr, ptr %12, align 8, !tbaa !9
  invoke void @_ZNKSt14default_deleteIA_KcEclIS0_EENSt9enable_ifIXsr14is_convertibleIPA_T_PS1_EE5valueEvE4typeEPS5_(ptr noundef nonnull align 1 dereferenceable(1) %11, ptr noundef %13)
          to label %14 unwind label %17

14:                                               ; preds = %10
  br label %15

15:                                               ; preds = %14, %1
  %16 = load ptr, ptr %3, align 8, !tbaa !11
  store ptr null, ptr %16, align 8, !tbaa !9
  call void @llvm.lifetime.end.p0(i64 8, ptr %3) #24
  ret void

17:                                               ; preds = %10
  %18 = landingpad { ptr, i32 }
          catch ptr null
  %19 = extractvalue { ptr, i32 } %18, 0
  call void @__clang_call_terminate(ptr %19) #27
  unreachable
}

; Function Attrs: mustprogress nounwind uwtable
define linkonce_odr void @_ZN7rocksdb6StatusD2Ev(ptr noundef nonnull align 8 dereferenceable(16) %0) unnamed_addr #2 comdat align 2 {
  %2 = alloca ptr, align 8
  store ptr %0, ptr %2, align 8, !tbaa !20
  %3 = load ptr, ptr %2, align 8
  %4 = getelementptr inbounds nuw %"class.rocksdb::Status", ptr %3, i32 0, i32 6
  call void @_ZNSt10unique_ptrIA_KcSt14default_deleteIS1_EED2Ev(ptr noundef nonnull align 8 dereferenceable(8) %4) #24
  ret void
}

; Function Attrs: mustprogress nounwind uwtable
define linkonce_odr void @_ZN7rocksdb5SliceC2EPKcm(ptr noundef nonnull align 8 dereferenceable(16) %0, ptr noundef %1, i64 noundef %2) unnamed_addr #2 comdat align 2 {
  %4 = alloca ptr, align 8
  %5 = alloca ptr, align 8
  %6 = alloca i64, align 8
  store ptr %0, ptr %4, align 8, !tbaa !256
  store ptr %1, ptr %5, align 8, !tbaa !9
  store i64 %2, ptr %6, align 8, !tbaa !103
  %7 = load ptr, ptr %4, align 8
  %8 = getelementptr inbounds nuw %"class.rocksdb::Slice", ptr %7, i32 0, i32 0
  %9 = load ptr, ptr %5, align 8, !tbaa !9
  store ptr %9, ptr %8, align 8, !tbaa !258
  %10 = getelementptr inbounds nuw %"class.rocksdb::Slice", ptr %7, i32 0, i32 1
  %11 = load i64, ptr %6, align 8, !tbaa !103
  store i64 %11, ptr %10, align 8, !tbaa !260
  ret void
}

; Function Attrs: mustprogress nounwind uwtable
define linkonce_odr void @_ZN7rocksdb5SliceC2Ev(ptr noundef nonnull align 8 dereferenceable(16) %0) unnamed_addr #2 comdat align 2 {
  %2 = alloca ptr, align 8
  store ptr %0, ptr %2, align 8, !tbaa !256
  %3 = load ptr, ptr %2, align 8
  %4 = getelementptr inbounds nuw %"class.rocksdb::Slice", ptr %3, i32 0, i32 0
  store ptr @.str, ptr %4, align 8, !tbaa !258
  %5 = getelementptr inbounds nuw %"class.rocksdb::Slice", ptr %3, i32 0, i32 1
  store i64 0, ptr %5, align 8, !tbaa !260
  ret void
}

; Function Attrs: mustprogress uwtable
define void @rocksdb_delete_file_in_range_cf(ptr noundef %0, ptr noundef %1, ptr noundef %2, i64 noundef %3, ptr noundef %4, i64 noundef %5, ptr noundef %6) #0 personality ptr @__gxx_personality_v0 {
  %8 = alloca ptr, align 8
  %9 = alloca ptr, align 8
  %10 = alloca ptr, align 8
  %11 = alloca i64, align 8
  %12 = alloca ptr, align 8
  %13 = alloca i64, align 8
  %14 = alloca ptr, align 8
  %15 = alloca %"class.rocksdb::Slice", align 8
  %16 = alloca %"class.rocksdb::Slice", align 8
  %17 = alloca %"class.rocksdb::Status", align 8
  %18 = alloca %"class.rocksdb::Slice", align 8
  %19 = alloca %"class.rocksdb::Slice", align 8
  %20 = alloca ptr, align 8
  %21 = alloca i32, align 4
  store ptr %0, ptr %8, align 8, !tbaa !14
  store ptr %1, ptr %9, align 8, !tbaa !200
  store ptr %2, ptr %10, align 8, !tbaa !9
  store i64 %3, ptr %11, align 8, !tbaa !103
  store ptr %4, ptr %12, align 8, !tbaa !9
  store i64 %5, ptr %13, align 8, !tbaa !103
  store ptr %6, ptr %14, align 8, !tbaa !11
  call void @llvm.lifetime.start.p0(i64 16, ptr %15) #24
  call void @_ZN7rocksdb5SliceC2Ev(ptr noundef nonnull align 8 dereferenceable(16) %15)
  call void @llvm.lifetime.start.p0(i64 16, ptr %16) #24
  call void @_ZN7rocksdb5SliceC2Ev(ptr noundef nonnull align 8 dereferenceable(16) %16)
  %22 = load ptr, ptr %14, align 8, !tbaa !11
  call void @llvm.lifetime.start.p0(i64 16, ptr %17) #24
  %23 = load ptr, ptr %8, align 8, !tbaa !14
  %24 = getelementptr inbounds nuw %struct.rocksdb_t, ptr %23, i32 0, i32 0
  %25 = load ptr, ptr %24, align 8, !tbaa !18
  %26 = load ptr, ptr %9, align 8, !tbaa !200
  %27 = getelementptr inbounds nuw %struct.rocksdb_column_family_handle_t, ptr %26, i32 0, i32 0
  %28 = load ptr, ptr %27, align 8, !tbaa !204
  %29 = load ptr, ptr %10, align 8, !tbaa !9
  %30 = icmp ne ptr %29, null
  call void @llvm.lifetime.start.p0(i64 16, ptr %18) #24
  br i1 %30, label %31, label %34

31:                                               ; preds = %7
  %32 = load ptr, ptr %10, align 8, !tbaa !9
  %33 = load i64, ptr %11, align 8, !tbaa !103
  call void @_ZN7rocksdb5SliceC2EPKcm(ptr noundef nonnull align 8 dereferenceable(16) %18, ptr noundef %32, i64 noundef %33)
  call void @llvm.memcpy.p0.p0.i64(ptr align 8 %15, ptr align 8 %18, i64 16, i1 false), !tbaa.struct !267
  br label %35

34:                                               ; preds = %7
  br label %35

35:                                               ; preds = %34, %31
  %36 = phi ptr [ %15, %31 ], [ null, %34 ]
  %37 = load ptr, ptr %12, align 8, !tbaa !9
  %38 = icmp ne ptr %37, null
  call void @llvm.lifetime.start.p0(i64 16, ptr %19) #24
  br i1 %38, label %39, label %42

39:                                               ; preds = %35
  %40 = load ptr, ptr %12, align 8, !tbaa !9
  %41 = load i64, ptr %13, align 8, !tbaa !103
  call void @_ZN7rocksdb5SliceC2EPKcm(ptr noundef nonnull align 8 dereferenceable(16) %19, ptr noundef %40, i64 noundef %41)
  call void @llvm.memcpy.p0.p0.i64(ptr align 8 %16, ptr align 8 %19, i64 16, i1 false), !tbaa.struct !267
  br label %43

42:                                               ; preds = %35
  br label %43

43:                                               ; preds = %42, %39
  %44 = phi ptr [ %16, %39 ], [ null, %42 ]
  call void @_ZN7rocksdb18DeleteFilesInRangeEPNS_2DBEPNS_18ColumnFamilyHandleEPKNS_5SliceES6_b(ptr dead_on_unwind writable sret(%"class.rocksdb::Status") align 8 %17, ptr noundef %25, ptr noundef %28, ptr noundef %36, ptr noundef %44, i1 noundef zeroext true)
  %45 = invoke noundef zeroext i1 @_ZL9SaveErrorPPcRKN7rocksdb6StatusE(ptr noundef %22, ptr noundef nonnull align 8 dereferenceable(16) %17)
          to label %46 unwind label %47

46:                                               ; preds = %43
  call void @_ZN7rocksdb6StatusD2Ev(ptr noundef nonnull align 8 dereferenceable(16) %17) #24
  call void @llvm.lifetime.end.p0(i64 16, ptr %19) #24
  call void @llvm.lifetime.end.p0(i64 16, ptr %18) #24
  call void @llvm.lifetime.end.p0(i64 16, ptr %17) #24
  call void @llvm.lifetime.end.p0(i64 16, ptr %16) #24
  call void @llvm.lifetime.end.p0(i64 16, ptr %15) #24
  ret void

47:                                               ; preds = %43
  %48 = landingpad { ptr, i32 }
          cleanup
  %49 = extractvalue { ptr, i32 } %48, 0
  store ptr %49, ptr %20, align 8
  %50 = extractvalue { ptr, i32 } %48, 1
  store i32 %50, ptr %21, align 4
  call void @_ZN7rocksdb6StatusD2Ev(ptr noundef nonnull align 8 dereferenceable(16) %17) #24
  call void @llvm.lifetime.end.p0(i64 16, ptr %19) #24
  call void @llvm.lifetime.end.p0(i64 16, ptr %18) #24
  call void @llvm.lifetime.end.p0(i64 16, ptr %17) #24
  call void @llvm.lifetime.end.p0(i64 16, ptr %16) #24
  call void @llvm.lifetime.end.p0(i64 16, ptr %15) #24
  br label %51

51:                                               ; preds = %47
  %52 = load ptr, ptr %20, align 8
  %53 = load i32, ptr %21, align 4
  %54 = insertvalue { ptr, i32 } poison, ptr %52, 0
  %55 = insertvalue { ptr, i32 } %54, i32 %53, 1
  resume { ptr, i32 } %55
}