; Function Attrs: mustprogress uwtable
define void @rocksdb_delete_file_in_range_cf(ptr noundef readonly captures(none) %0, ptr noundef readonly captures(none) %1, ptr noundef %2, i64 noundef %3, ptr noundef %4, i64 noundef %5, ptr noundef captures(none) %6) local_unnamed_addr #0 personality ptr @__gxx_personality_v0 {
  %8 = alloca %"class.rocksdb::Slice", align 8
  %9 = alloca %"class.rocksdb::Slice", align 8
  %10 = alloca %"class.rocksdb::Status", align 8
  call void @llvm.lifetime.start.p0(i64 16, ptr nonnull %8) #43
  store ptr @.str, ptr %8, align 8, !tbaa !251
  %11 = getelementptr inbounds nuw i8, ptr %8, i64 8
  store i64 0, ptr %11, align 8, !tbaa !253
  call void @llvm.lifetime.start.p0(i64 16, ptr nonnull %9) #43
  store ptr @.str, ptr %9, align 8, !tbaa !251
  %12 = getelementptr inbounds nuw i8, ptr %9, i64 8
  store i64 0, ptr %12, align 8, !tbaa !253
  call void @llvm.lifetime.start.p0(i64 16, ptr nonnull %10) #43
  %13 = load ptr, ptr %0, align 8, !tbaa !26
  %14 = load ptr, ptr %1, align 8, !tbaa !196
  %.not = icmp eq ptr %2, null
  br i1 %.not, label %16, label %15

15:                                               ; preds = %7
  store ptr %2, ptr %8, align 8, !tbaa !25
  store i64 %3, ptr %11, align 8, !tbaa !10
  br label %16

16:                                               ; preds = %7, %15
  %17 = phi ptr [ %8, %15 ], [ null, %7 ]
  %.not11 = icmp eq ptr %4, null
  br i1 %.not11, label %19, label %18

18:                                               ; preds = %16
  store ptr %4, ptr %9, align 8, !tbaa !25
  store i64 %5, ptr %12, align 8, !tbaa !10
  br label %19

19:                                               ; preds = %16, %18
  %20 = phi ptr [ %9, %18 ], [ null, %16 ]
  call void @_ZN7rocksdb18DeleteFilesInRangeEPNS_2DBEPNS_18ColumnFamilyHandleEPKNS_5SliceES6_b(ptr dead_on_unwind nonnull writable sret(%"class.rocksdb::Status") align 8 %10, ptr noundef %13, ptr noundef %14, ptr noundef %17, ptr noundef %20, i1 noundef zeroext true)
  %21 = invoke fastcc noundef zeroext i1 @_ZL9SaveErrorPPcRKN7rocksdb6StatusE(ptr noundef %6, ptr noundef nonnull align 8 dereferenceable(16) %10)
          to label %22 unwind label %25

22:                                               ; preds = %19
  %23 = getelementptr inbounds nuw i8, ptr %10, i64 8
  %24 = load ptr, ptr %23, align 8, !tbaa !25
  %.not.i.i = icmp eq ptr %24, null
  br i1 %.not.i.i, label %_ZN7rocksdb6StatusD2Ev.exit, label %_ZNKSt14default_deleteIA_KcEclIS0_EENSt9enable_ifIXsr14is_convertibleIPA_T_PS1_EE5valueEvE4typeEPS5_.exit.i.i

_ZNKSt14default_deleteIA_KcEclIS0_EENSt9enable_ifIXsr14is_convertibleIPA_T_PS1_EE5valueEvE4typeEPS5_.exit.i.i: ; preds = %22
  call void @_ZdaPv(ptr noundef nonnull %24) #45
  br label %_ZN7rocksdb6StatusD2Ev.exit

_ZN7rocksdb6StatusD2Ev.exit:                      ; preds = %22, %_ZNKSt14default_deleteIA_KcEclIS0_EENSt9enable_ifIXsr14is_convertibleIPA_T_PS1_EE5valueEvE4typeEPS5_.exit.i.i
  call void @llvm.lifetime.end.p0(i64 16, ptr nonnull %10) #43
  call void @llvm.lifetime.end.p0(i64 16, ptr nonnull %9) #43
  call void @llvm.lifetime.end.p0(i64 16, ptr nonnull %8) #43
  ret void

25:                                               ; preds = %19
  %26 = landingpad { ptr, i32 }
          cleanup
  %27 = getelementptr inbounds nuw i8, ptr %10, i64 8
  %28 = load ptr, ptr %27, align 8, !tbaa !25
  %.not.i.i12 = icmp eq ptr %28, null
  br i1 %.not.i.i12, label %_ZN7rocksdb6StatusD2Ev.exit14, label %_ZNKSt14default_deleteIA_KcEclIS0_EENSt9enable_ifIXsr14is_convertibleIPA_T_PS1_EE5valueEvE4typeEPS5_.exit.i.i13

_ZNKSt14default_deleteIA_KcEclIS0_EENSt9enable_ifIXsr14is_convertibleIPA_T_PS1_EE5valueEvE4typeEPS5_.exit.i.i13: ; preds = %25
  call void @_ZdaPv(ptr noundef nonnull %28) #45
  br label %_ZN7rocksdb6StatusD2Ev.exit14

_ZN7rocksdb6StatusD2Ev.exit14:                    ; preds = %25, %_ZNKSt14default_deleteIA_KcEclIS0_EENSt9enable_ifIXsr14is_convertibleIPA_T_PS1_EE5valueEvE4typeEPS5_.exit.i.i13
  call void @llvm.lifetime.end.p0(i64 16, ptr nonnull %10) #43
  call void @llvm.lifetime.end.p0(i64 16, ptr nonnull %9) #43
  call void @llvm.lifetime.end.p0(i64 16, ptr nonnull %8) #43
  resume { ptr, i32 } %26
}